	.file	"main.c"
	.text
	.globl	my_cal
	.bss
	.align 16
	.type	my_cal, @object
	.size	my_cal, 16
my_cal:
	.zero	16
	.text
	.globl	cal_fun_register
	.type	cal_fun_register, @function
cal_fun_register:
.LFB0:
	.cfi_startproc
	endbr64
	pushq	%rbp
	.cfi_def_cfa_offset 16
	.cfi_offset 6, -16
	movq	%rsp, %rbp
	.cfi_def_cfa_register 6
	movq	add_@GOTPCREL(%rip), %rax
	movq	%rax, my_cal(%rip)
	movq	subs_@GOTPCREL(%rip), %rax
	movq	%rax, 8+my_cal(%rip)
	nop
	popq	%rbp
	.cfi_def_cfa 7, 8
	ret
	.cfi_endproc
.LFE0:
	.size	cal_fun_register, .-cal_fun_register
	.section	.rodata
.LC0:
	.string	"add = %d\n"
.LC1:
	.string	"sub = %d\n"
	.text
	.globl	main
	.type	main, @function
main:
.LFB1:
	.cfi_startproc
	endbr64
	pushq	%rbp
	.cfi_def_cfa_offset 16
	.cfi_offset 6, -16
	movq	%rsp, %rbp
	.cfi_def_cfa_register 6
	subq	$16, %rsp
	call	cal_fun_register
	movl	$10, -8(%rbp)
	movl	$5, -4(%rbp)
	movq	my_cal(%rip), %rcx
	movl	-4(%rbp), %edx
	movl	-8(%rbp), %eax
	movl	%edx, %esi
	movl	%eax, %edi
	call	*%rcx
	movl	%eax, %esi
	leaq	.LC0(%rip), %rax
	movq	%rax, %rdi
	movl	$0, %eax
	call	printf@PLT
	movq	8+my_cal(%rip), %rcx
	movl	-4(%rbp), %edx
	movl	-8(%rbp), %eax
	movl	%edx, %esi
	movl	%eax, %edi
	call	*%rcx
	movl	%eax, %esi
	leaq	.LC1(%rip), %rax
	movq	%rax, %rdi
	movl	$0, %eax
	call	printf@PLT
	movl	$0, %eax
	leave
	.cfi_def_cfa 7, 8
	ret
	.cfi_endproc
.LFE1:
	.size	main, .-main
	.ident	"GCC: (Ubuntu 11.4.0-1ubuntu1~22.04) 11.4.0"
	.section	.note.GNU-stack,"",@progbits
	.section	.note.gnu.property,"a"
	.align 8
	.long	1f - 0f
	.long	4f - 1f
	.long	5
0:
	.string	"GNU"
1:
	.align 8
	.long	0xc0000002
	.long	3f - 2f
2:
	.long	0x3
3:
	.align 8
4:
